target datalayout = "e-m:e-p270:32:32-p271:32:32-p272:64:64-i64:64-i128:128-f80:128-n8:16:32:64-S128"
target triple = "x86_64-pc-linux-gnu"

%struct.H5T_conv_cb_t = type { ptr, ptr }

@H5P_CLS_DATASET_XFER_ID_g = external global i64, align 8
@H5_libinit_g = external global i8, align 1
@H5_libterm_g = external global i8, align 1
@.str.1 = private unnamed_addr constant [101 x i8] c"generated/home/dtcxzyw/WorkSpace/Projects/compilers/llvm-opt-benchmark/bench/hdf5/hdf5/src/H5Pdxpl.c\00", align 1
@H5E_FUNC_g = external global i64, align 8
@H5E_CANTINIT_g = external global i64, align 8
@.str.2 = private unnamed_addr constant [30 x i8] c"library initialization failed\00", align 1
@H5E_CANTSET_g = external global i64, align 8
@.str.3 = private unnamed_addr constant [22 x i8] c"can't set API context\00", align 1
@H5E_ID_g = external global i64, align 8
@H5E_BADID_g = external global i64, align 8
@.str.5 = private unnamed_addr constant [25 x i8] c"can't find object for ID\00", align 1
@H5E_PLIST_g = external global i64, align 8
@.str.23 = private unnamed_addr constant [20 x i8] c"unable to set value\00", align 1
@__func__.H5Pset_type_conv_cb = private unnamed_addr constant [20 x i8] c"H5Pset_type_conv_cb\00", align 1
@.str.28 = private unnamed_addr constant [13 x i8] c"type_conv_cb\00", align 1

; Function Attrs: nounwind uwtable
define i32 @H5Pset_type_conv_cb(i64 noundef %0, ptr noundef %1, ptr noundef %2) #0 {
  %4 = alloca i64, align 8
  %5 = alloca ptr, align 8
  %6 = alloca ptr, align 8
  %7 = alloca ptr, align 8
  %8 = alloca i32, align 4
  %9 = alloca %struct.H5T_conv_cb_t, align 8
  %10 = alloca i8, align 1
  %11 = alloca i8, align 1
  store i64 %0, ptr %4, align 8
  store ptr %1, ptr %5, align 8
  store ptr %2, ptr %6, align 8
  store i32 0, ptr %8, align 4
  store i8 0, ptr %10, align 1
  store i8 0, ptr %11, align 1
  %12 = load i8, ptr @H5_libinit_g, align 1
  %13 = trunc i8 %12 to i1
  br i1 %13, label %18, label %14

14:                                               ; preds = %3
  %15 = load i8, ptr @H5_libterm_g, align 1
  %16 = trunc i8 %15 to i1
  %17 = xor i1 %16, true
  br label %18

18:                                               ; preds = %14, %3
  %19 = phi i1 [ false, %3 ], [ %17, %14 ]
  %20 = xor i1 %19, true
  %21 = xor i1 %20, true
  %22 = zext i1 %21 to i32
  %23 = sext i32 %22 to i64
  %24 = icmp ne i64 %23, 0
  br i1 %24, label %25, label %49

25:                                               ; preds = %18
  %26 = call i32 @H5_init_library()
  %27 = icmp slt i32 %26, 0
  %28 = xor i1 %27, true
  %29 = xor i1 %28, true
  %30 = zext i1 %29 to i32
  %31 = sext i32 %30 to i64
  %32 = icmp ne i64 %31, 0
  br i1 %32, label %33, label %48

33:                                               ; preds = %25
  br label %34

34:                                               ; preds = %33
  br label %35

35:                                               ; preds = %34
  br label %36

36:                                               ; preds = %35
  %37 = load i64, ptr @H5E_FUNC_g, align 8
  %38 = load i64, ptr @H5E_CANTINIT_g, align 8
  %39 = call i32 (ptr, ptr, i32, i64, i64, ptr, ...) @H5E_printf_stack(ptr noundef @.str.1, ptr noundef @__func__.H5Pset_type_conv_cb, i32 noundef 1342, i64 noundef %37, i64 noundef %38, ptr noundef @.str.2)
  br label %40

40:                                               ; preds = %36
  store i8 1, ptr %11, align 1
  %41 = load i8, ptr %11, align 1
  %42 = trunc i8 %41 to i1
  %43 = zext i1 %42 to i8
  store i8 %43, ptr %11, align 1
  br label %44

44:                                               ; preds = %40
  br label %45

45:                                               ; preds = %44
  store i32 -1, ptr %8, align 4
  br label %118

46:                                               ; No predecessors!
  br label %47

47:                                               ; preds = %46
  br label %48

48:                                               ; preds = %47, %25
  br label %49

49:                                               ; preds = %48, %18
  %50 = call i32 @H5CX_push()
  %51 = icmp slt i32 %50, 0
  %52 = xor i1 %51, true
  %53 = xor i1 %52, true
  %54 = zext i1 %53 to i32
  %55 = sext i32 %54 to i64
  %56 = icmp ne i64 %55, 0
  br i1 %56, label %57, label %72

57:                                               ; preds = %49
  br label %58

58:                                               ; preds = %57
  br label %59

59:                                               ; preds = %58
  br label %60

60:                                               ; preds = %59
  %61 = load i64, ptr @H5E_FUNC_g, align 8
  %62 = load i64, ptr @H5E_CANTSET_g, align 8
  %63 = call i32 (ptr, ptr, i32, i64, i64, ptr, ...) @H5E_printf_stack(ptr noundef @.str.1, ptr noundef @__func__.H5Pset_type_conv_cb, i32 noundef 1342, i64 noundef %61, i64 noundef %62, ptr noundef @.str.3)
  br label %64

64:                                               ; preds = %60
  store i8 1, ptr %11, align 1
  %65 = load i8, ptr %11, align 1
  %66 = trunc i8 %65 to i1
  %67 = zext i1 %66 to i8
  store i8 %67, ptr %11, align 1
  br label %68

68:                                               ; preds = %64
  br label %69

69:                                               ; preds = %68
  store i32 -1, ptr %8, align 4
  br label %118

70:                                               ; No predecessors!
  br label %71

71:                                               ; preds = %70
  br label %73

72:                                               ; preds = %49
  store i8 1, ptr %10, align 1
  br label %73

73:                                               ; preds = %72, %71
  %74 = call i32 @H5E_clear_stack()
  %75 = load i64, ptr %4, align 8
  %76 = load i64, ptr @H5P_CLS_DATASET_XFER_ID_g, align 8
  %77 = call ptr @H5P_object_verify(i64 noundef %75, i64 noundef %76)
  store ptr %77, ptr %7, align 8
  %78 = icmp eq ptr null, %77
  br i1 %78, label %79, label %94

79:                                               ; preds = %73
  br label %80

80:                                               ; preds = %79
  br label %81

81:                                               ; preds = %80
  br label %82

82:                                               ; preds = %81
  %83 = load i64, ptr @H5E_ID_g, align 8
  %84 = load i64, ptr @H5E_BADID_g, align 8
  %85 = call i32 (ptr, ptr, i32, i64, i64, ptr, ...) @H5E_printf_stack(ptr noundef @.str.1, ptr noundef @__func__.H5Pset_type_conv_cb, i32 noundef 1346, i64 noundef %83, i64 noundef %84, ptr noundef @.str.5)
  br label %86

86:                                               ; preds = %82
  store i8 1, ptr %11, align 1
  %87 = load i8, ptr %11, align 1
  %88 = trunc i8 %87 to i1
  %89 = zext i1 %88 to i8
  store i8 %89, ptr %11, align 1
  br label %90

90:                                               ; preds = %86
  br label %91

91:                                               ; preds = %90
  store i32 -1, ptr %8, align 4
  br label %118

92:                                               ; No predecessors!
  br label %93

93:                                               ; preds = %92
  br label %94

94:                                               ; preds = %93, %73
  %95 = load ptr, ptr %5, align 8
  %96 = getelementptr inbounds %struct.H5T_conv_cb_t, ptr %9, i32 0, i32 0
  store ptr %95, ptr %96, align 8
  %97 = load ptr, ptr %6, align 8
  %98 = getelementptr inbounds %struct.H5T_conv_cb_t, ptr %9, i32 0, i32 1
  store ptr %97, ptr %98, align 8
  %99 = load ptr, ptr %7, align 8
  %100 = call i32 @H5P_set(ptr noundef %99, ptr noundef @.str.28, ptr noundef %9)
  %101 = icmp slt i32 %100, 0
  br i1 %101, label %102, label %117

102:                                              ; preds = %94
  br label %103

103:                                              ; preds = %102
  br label %104

104:                                              ; preds = %103
  br label %105

105:                                              ; preds = %104
  %106 = load i64, ptr @H5E_PLIST_g, align 8
  %107 = load i64, ptr @H5E_CANTSET_g, align 8
  %108 = call i32 (ptr, ptr, i32, i64, i64, ptr, ...) @H5E_printf_stack(ptr noundef @.str.1, ptr noundef @__func__.H5Pset_type_conv_cb, i32 noundef 1353, i64 noundef %106, i64 noundef %107, ptr noundef @.str.23)
  br label %109

109:                                              ; preds = %105
  store i8 1, ptr %11, align 1
  %110 = load i8, ptr %11, align 1
  %111 = trunc i8 %110 to i1
  %112 = zext i1 %111 to i8
  store i8 %112, ptr %11, align 1
  br label %113

113:                                              ; preds = %109
  br label %114

114:                                              ; preds = %113
  store i32 -1, ptr %8, align 4
  br label %118

115:                                              ; No predecessors!
  br label %116

116:                                              ; preds = %115
  br label %117

117:                                              ; preds = %116, %94
  br label %118

118:                                              ; preds = %117, %114, %91, %69, %45
  %119 = load i8, ptr %10, align 1
  %120 = trunc i8 %119 to i1
  %121 = xor i1 %120, true
  %122 = xor i1 %121, true
  %123 = zext i1 %122 to i32
  %124 = sext i32 %123 to i64
  %125 = icmp ne i64 %124, 0
  br i1 %125, label %126, label %128

126:                                              ; preds = %118
  %127 = call i32 @H5CX_pop(i1 noundef zeroext true)
  store i8 0, ptr %10, align 1
  br label %128

128:                                              ; preds = %126, %118
  %129 = load i8, ptr %11, align 1
  %130 = trunc i8 %129 to i1
  %131 = xor i1 %130, true
  %132 = xor i1 %131, true
  %133 = zext i1 %132 to i32
  %134 = sext i32 %133 to i64
  %135 = icmp ne i64 %134, 0
  br i1 %135, label %136, label %138

136:                                              ; preds = %128
  %137 = call i32 @H5E_dump_api_stack()
  br label %138

138:                                              ; preds = %136, %128
  %139 = load i32, ptr %8, align 4
  ret i32 %139
}