; Function Attrs: nounwind uwtable
define range(i32 -1, 1) i32 @H5Pset_type_conv_cb(i64 noundef %0, ptr noundef %1, ptr noundef %2) local_unnamed_addr #0 {
  %4 = alloca %struct.H5T_conv_cb_t, align 8
  %5 = load i8, ptr @H5_libinit_g, align 1
  %6 = trunc i8 %5 to i1
  %7 = load i8, ptr @H5_libterm_g, align 1
  %8 = trunc i8 %7 to i1
  %9 = select i1 %6, i1 true, i1 %8
  br i1 %9, label %17, label %10

10:                                               ; preds = %3
  %11 = tail call i32 @H5_init_library() #8
  %12 = icmp slt i32 %11, 0
  br i1 %12, label %13, label %17

13:                                               ; preds = %10
  %14 = load i64, ptr @H5E_FUNC_g, align 8
  %15 = load i64, ptr @H5E_CANTINIT_g, align 8
  %16 = tail call i32 (ptr, ptr, i32, i64, i64, ptr, ...) @H5E_printf_stack(ptr noundef nonnull @.str.1, ptr noundef nonnull @__func__.H5Pset_type_conv_cb, i32 noundef 1342, i64 noundef %14, i64 noundef %15, ptr noundef nonnull @.str.2) #8
  br label %.thread21

17:                                               ; preds = %10, %3
  %18 = tail call i32 @H5CX_push() #8
  %19 = icmp slt i32 %18, 0
  br i1 %19, label %20, label %24

20:                                               ; preds = %17
  %21 = load i64, ptr @H5E_FUNC_g, align 8
  %22 = load i64, ptr @H5E_CANTSET_g, align 8
  %23 = tail call i32 (ptr, ptr, i32, i64, i64, ptr, ...) @H5E_printf_stack(ptr noundef nonnull @.str.1, ptr noundef nonnull @__func__.H5Pset_type_conv_cb, i32 noundef 1342, i64 noundef %21, i64 noundef %22, ptr noundef nonnull @.str.3) #8
  br label %.thread21

24:                                               ; preds = %17
  %25 = tail call i32 @H5E_clear_stack() #8
  %26 = load i64, ptr @H5P_CLS_DATASET_XFER_ID_g, align 8
  %27 = tail call ptr @H5P_object_verify(i64 noundef %0, i64 noundef %26) #8
  %28 = icmp eq ptr %27, null
  br i1 %28, label %29, label %33

29:                                               ; preds = %24
  %30 = load i64, ptr @H5E_ID_g, align 8
  %31 = load i64, ptr @H5E_BADID_g, align 8
  %32 = tail call i32 (ptr, ptr, i32, i64, i64, ptr, ...) @H5E_printf_stack(ptr noundef nonnull @.str.1, ptr noundef nonnull @__func__.H5Pset_type_conv_cb, i32 noundef 1346, i64 noundef %30, i64 noundef %31, ptr noundef nonnull @.str.5) #8
  br label %.thread27

33:                                               ; preds = %24
  store ptr %1, ptr %4, align 8
  %34 = getelementptr inbounds i8, ptr %4, i64 8
  store ptr %2, ptr %34, align 8
  %35 = call i32 @H5P_set(ptr noundef nonnull %27, ptr noundef nonnull @.str.28, ptr noundef nonnull %4) #8
  %36 = icmp slt i32 %35, 0
  br i1 %36, label %37, label %42

37:                                               ; preds = %33
  %38 = load i64, ptr @H5E_PLIST_g, align 8
  %39 = load i64, ptr @H5E_CANTSET_g, align 8
  %40 = call i32 (ptr, ptr, i32, i64, i64, ptr, ...) @H5E_printf_stack(ptr noundef nonnull @.str.1, ptr noundef nonnull @__func__.H5Pset_type_conv_cb, i32 noundef 1353, i64 noundef %38, i64 noundef %39, ptr noundef nonnull @.str.23) #8
  br label %.thread27

.thread27:                                        ; preds = %37, %29
  %41 = call i32 @H5CX_pop(i1 noundef zeroext true) #8
  br label %.thread21

42:                                               ; preds = %33
  %43 = call i32 @H5CX_pop(i1 noundef zeroext true) #8
  br label %45

.thread21:                                        ; preds = %20, %13, %.thread27
  %44 = call i32 @H5E_dump_api_stack() #8
  br label %45

45:                                               ; preds = %42, %.thread21
  %.0111624 = phi i32 [ -1, %.thread21 ], [ 0, %42 ]
  ret i32 %.0111624
}